target datalayout = "e-m:e-p270:32:32-p271:32:32-p272:64:64-i64:64-i128:128-f80:128-n8:16:32:64-S128"
target triple = "x86_64-pc-linux-gnu"

%struct.ec_group_st = type { ptr, ptr, ptr, ptr, i32, i32, i32, i32, ptr, i64, ptr, [6 x i32], ptr, ptr, i32, ptr, ptr, ptr, ptr, i32, %union.anon, ptr, ptr }
%union.anon = type { ptr }
%struct.ec_method_st = type { i32, i32, ptr, ptr, ptr, ptr, ptr, ptr, ptr, ptr, ptr, ptr, ptr, ptr, ptr, ptr, ptr, ptr, ptr, ptr, ptr, ptr, ptr, ptr, ptr, ptr, ptr, ptr, ptr, ptr, ptr, ptr, ptr, ptr, ptr, ptr, ptr, ptr, ptr, ptr, ptr, ptr, ptr, ptr, ptr, ptr, ptr, ptr, ptr, ptr, ptr, ptr, ptr, ptr, ptr, ptr, ptr }
%struct.ec_point_st = type { ptr, i32, ptr, ptr, ptr, i32 }

@.str = private unnamed_addr constant [30 x i8] c"../openssl/crypto/ec/ec_oct.c\00", align 1
@__func__.EC_POINT_set_compressed_coordinates = private unnamed_addr constant [36 x i8] c"EC_POINT_set_compressed_coordinates\00", align 1

; Function Attrs: inlinehint nounwind uwtable
define internal i32 @ec_point_is_compat(ptr noundef %0, ptr noundef %1) #2 {
  %3 = alloca ptr, align 8
  %4 = alloca ptr, align 8
  store ptr %0, ptr %3, align 8, !tbaa !8
  store ptr %1, ptr %4, align 8, !tbaa !3
  %5 = load ptr, ptr %4, align 8, !tbaa !3
  %6 = getelementptr inbounds nuw %struct.ec_group_st, ptr %5, i32 0, i32 0
  %7 = load ptr, ptr %6, align 8, !tbaa !16
  %8 = load ptr, ptr %3, align 8, !tbaa !8
  %9 = getelementptr inbounds nuw %struct.ec_point_st, ptr %8, i32 0, i32 0
  %10 = load ptr, ptr %9, align 8, !tbaa !27
  %11 = icmp eq ptr %7, %10
  br i1 %11, label %12, label %32

12:                                               ; preds = %2
  %13 = load ptr, ptr %4, align 8, !tbaa !3
  %14 = getelementptr inbounds nuw %struct.ec_group_st, ptr %13, i32 0, i32 4
  %15 = load i32, ptr %14, align 8, !tbaa !29
  %16 = icmp eq i32 %15, 0
  br i1 %16, label %30, label %17

17:                                               ; preds = %12
  %18 = load ptr, ptr %3, align 8, !tbaa !8
  %19 = getelementptr inbounds nuw %struct.ec_point_st, ptr %18, i32 0, i32 1
  %20 = load i32, ptr %19, align 8, !tbaa !30
  %21 = icmp eq i32 %20, 0
  br i1 %21, label %30, label %22

22:                                               ; preds = %17
  %23 = load ptr, ptr %4, align 8, !tbaa !3
  %24 = getelementptr inbounds nuw %struct.ec_group_st, ptr %23, i32 0, i32 4
  %25 = load i32, ptr %24, align 8, !tbaa !29
  %26 = load ptr, ptr %3, align 8, !tbaa !8
  %27 = getelementptr inbounds nuw %struct.ec_point_st, ptr %26, i32 0, i32 1
  %28 = load i32, ptr %27, align 8, !tbaa !30
  %29 = icmp eq i32 %25, %28
  br label %30

30:                                               ; preds = %22, %17, %12
  %31 = phi i1 [ true, %17 ], [ true, %12 ], [ %29, %22 ]
  br label %32

32:                                               ; preds = %30, %2
  %33 = phi i1 [ false, %2 ], [ %31, %30 ]
  %34 = zext i1 %33 to i32
  ret i32 %34
}

; Function Attrs: nounwind uwtable
define i32 @EC_POINT_set_compressed_coordinates(ptr noundef %0, ptr noundef %1, ptr noundef %2, i32 noundef %3, ptr noundef %4) #0 {
  %6 = alloca i32, align 4
  %7 = alloca ptr, align 8
  %8 = alloca ptr, align 8
  %9 = alloca ptr, align 8
  %10 = alloca i32, align 4
  %11 = alloca ptr, align 8
  store ptr %0, ptr %7, align 8, !tbaa !3
  store ptr %1, ptr %8, align 8, !tbaa !8
  store ptr %2, ptr %9, align 8, !tbaa !10
  store i32 %3, ptr %10, align 4, !tbaa !12
  store ptr %4, ptr %11, align 8, !tbaa !14
  %12 = load ptr, ptr %7, align 8, !tbaa !3
  %13 = getelementptr inbounds nuw %struct.ec_group_st, ptr %12, i32 0, i32 0
  %14 = load ptr, ptr %13, align 8, !tbaa !16
  %15 = getelementptr inbounds nuw %struct.ec_method_st, ptr %14, i32 0, i32 18
  %16 = load ptr, ptr %15, align 8, !tbaa !23
  %17 = icmp eq ptr %16, null
  br i1 %17, label %18, label %27

18:                                               ; preds = %5
  %19 = load ptr, ptr %7, align 8, !tbaa !3
  %20 = getelementptr inbounds nuw %struct.ec_group_st, ptr %19, i32 0, i32 0
  %21 = load ptr, ptr %20, align 8, !tbaa !16
  %22 = getelementptr inbounds nuw %struct.ec_method_st, ptr %21, i32 0, i32 0
  %23 = load i32, ptr %22, align 8, !tbaa !25
  %24 = and i32 %23, 1
  %25 = icmp ne i32 %24, 0
  br i1 %25, label %27, label %26

26:                                               ; preds = %18
  call void @ERR_new()
  call void @ERR_set_debug(ptr noundef @.str, i32 noundef 29, ptr noundef @__func__.EC_POINT_set_compressed_coordinates)
  call void (i32, i32, ptr, ...) @ERR_set_error(i32 noundef 16, i32 noundef 786689, ptr noundef null)
  store i32 0, ptr %6, align 4
  br label %74

27:                                               ; preds = %18, %5
  %28 = load ptr, ptr %8, align 8, !tbaa !8
  %29 = load ptr, ptr %7, align 8, !tbaa !3
  %30 = call i32 @ec_point_is_compat(ptr noundef %28, ptr noundef %29)
  %31 = icmp ne i32 %30, 0
  br i1 %31, label %33, label %32

32:                                               ; preds = %27
  call void @ERR_new()
  call void @ERR_set_debug(ptr noundef @.str, i32 noundef 33, ptr noundef @__func__.EC_POINT_set_compressed_coordinates)
  call void (i32, i32, ptr, ...) @ERR_set_error(i32 noundef 16, i32 noundef 101, ptr noundef null)
  store i32 0, ptr %6, align 4
  br label %74

33:                                               ; preds = %27
  %34 = load ptr, ptr %7, align 8, !tbaa !3
  %35 = getelementptr inbounds nuw %struct.ec_group_st, ptr %34, i32 0, i32 0
  %36 = load ptr, ptr %35, align 8, !tbaa !16
  %37 = getelementptr inbounds nuw %struct.ec_method_st, ptr %36, i32 0, i32 0
  %38 = load i32, ptr %37, align 8, !tbaa !25
  %39 = and i32 %38, 1
  %40 = icmp ne i32 %39, 0
  br i1 %40, label %41, label %62

41:                                               ; preds = %33
  %42 = load ptr, ptr %7, align 8, !tbaa !3
  %43 = getelementptr inbounds nuw %struct.ec_group_st, ptr %42, i32 0, i32 0
  %44 = load ptr, ptr %43, align 8, !tbaa !16
  %45 = getelementptr inbounds nuw %struct.ec_method_st, ptr %44, i32 0, i32 1
  %46 = load i32, ptr %45, align 4, !tbaa !26
  %47 = icmp eq i32 %46, 406
  br i1 %47, label %48, label %55

48:                                               ; preds = %41
  %49 = load ptr, ptr %7, align 8, !tbaa !3
  %50 = load ptr, ptr %8, align 8, !tbaa !8
  %51 = load ptr, ptr %9, align 8, !tbaa !10
  %52 = load i32, ptr %10, align 4, !tbaa !12
  %53 = load ptr, ptr %11, align 8, !tbaa !14
  %54 = call i32 @ossl_ec_GFp_simple_set_compressed_coordinates(ptr noundef %49, ptr noundef %50, ptr noundef %51, i32 noundef %52, ptr noundef %53)
  store i32 %54, ptr %6, align 4
  br label %74

55:                                               ; preds = %41
  %56 = load ptr, ptr %7, align 8, !tbaa !3
  %57 = load ptr, ptr %8, align 8, !tbaa !8
  %58 = load ptr, ptr %9, align 8, !tbaa !10
  %59 = load i32, ptr %10, align 4, !tbaa !12
  %60 = load ptr, ptr %11, align 8, !tbaa !14
  %61 = call i32 @ossl_ec_GF2m_simple_set_compressed_coordinates(ptr noundef %56, ptr noundef %57, ptr noundef %58, i32 noundef %59, ptr noundef %60)
  store i32 %61, ptr %6, align 4
  br label %74

62:                                               ; preds = %33
  %63 = load ptr, ptr %7, align 8, !tbaa !3
  %64 = getelementptr inbounds nuw %struct.ec_group_st, ptr %63, i32 0, i32 0
  %65 = load ptr, ptr %64, align 8, !tbaa !16
  %66 = getelementptr inbounds nuw %struct.ec_method_st, ptr %65, i32 0, i32 18
  %67 = load ptr, ptr %66, align 8, !tbaa !23
  %68 = load ptr, ptr %7, align 8, !tbaa !3
  %69 = load ptr, ptr %8, align 8, !tbaa !8
  %70 = load ptr, ptr %9, align 8, !tbaa !10
  %71 = load i32, ptr %10, align 4, !tbaa !12
  %72 = load ptr, ptr %11, align 8, !tbaa !14
  %73 = call i32 %67(ptr noundef %68, ptr noundef %69, ptr noundef %70, i32 noundef %71, ptr noundef %72)
  store i32 %73, ptr %6, align 4
  br label %74

74:                                               ; preds = %62, %55, %48, %32, %26
  %75 = load i32, ptr %6, align 4
  ret i32 %75
}