; Function Attrs: nounwind uwtable
define i32 @EC_POINT_set_compressed_coordinates(ptr noundef %0, ptr noundef %1, ptr noundef %2, i32 noundef %3, ptr noundef %4) local_unnamed_addr #0 {
  %6 = load ptr, ptr %0, align 8, !tbaa !3
  %7 = getelementptr inbounds nuw i8, ptr %6, i64 136
  %8 = load ptr, ptr %7, align 8, !tbaa !16
  %9 = icmp eq ptr %8, null
  br i1 %9, label %10, label %14

10:                                               ; preds = %5
  %11 = load i32, ptr %6, align 8, !tbaa !18
  %12 = and i32 %11, 1
  %.not = icmp eq i32 %12, 0
  br i1 %.not, label %13, label %14

13:                                               ; preds = %10
  tail call void @ERR_new() #2
  tail call void @ERR_set_debug(ptr noundef nonnull @.str, i32 noundef 29, ptr noundef nonnull @__func__.EC_POINT_set_compressed_coordinates) #2
  tail call void (i32, i32, ptr, ...) @ERR_set_error(i32 noundef 16, i32 noundef 786689, ptr noundef null) #2
  br label %37

14:                                               ; preds = %10, %5
  %15 = load ptr, ptr %1, align 8, !tbaa !19
  %16 = icmp eq ptr %6, %15
  br i1 %16, label %17, label %ec_point_is_compat.exit.thread25

17:                                               ; preds = %14
  %18 = getelementptr inbounds nuw i8, ptr %0, i64 32
  %19 = load i32, ptr %18, align 8, !tbaa !21
  %20 = icmp eq i32 %19, 0
  br i1 %20, label %ec_point_is_compat.exit.thread, label %21

21:                                               ; preds = %17
  %22 = getelementptr inbounds nuw i8, ptr %1, i64 8
  %23 = load i32, ptr %22, align 8, !tbaa !22
  %24 = icmp eq i32 %23, 0
  %.not27 = icmp eq i32 %19, %23
  %or.cond = or i1 %24, %.not27
  br i1 %or.cond, label %ec_point_is_compat.exit.thread, label %ec_point_is_compat.exit.thread25

ec_point_is_compat.exit.thread25:                 ; preds = %21, %14
  tail call void @ERR_new() #2
  tail call void @ERR_set_debug(ptr noundef nonnull @.str, i32 noundef 33, ptr noundef nonnull @__func__.EC_POINT_set_compressed_coordinates) #2
  tail call void (i32, i32, ptr, ...) @ERR_set_error(i32 noundef 16, i32 noundef 101, ptr noundef null) #2
  br label %37

ec_point_is_compat.exit.thread:                   ; preds = %17, %21
  %25 = load i32, ptr %6, align 8, !tbaa !18
  %26 = and i32 %25, 1
  %.not23 = icmp eq i32 %26, 0
  br i1 %.not23, label %35, label %27

27:                                               ; preds = %ec_point_is_compat.exit.thread
  %28 = getelementptr inbounds nuw i8, ptr %6, i64 4
  %29 = load i32, ptr %28, align 4, !tbaa !23
  %30 = icmp eq i32 %29, 406
  br i1 %30, label %31, label %33

31:                                               ; preds = %27
  %32 = tail call i32 @ossl_ec_GFp_simple_set_compressed_coordinates(ptr noundef nonnull %0, ptr noundef nonnull %1, ptr noundef %2, i32 noundef %3, ptr noundef %4) #2
  br label %37

33:                                               ; preds = %27
  %34 = tail call i32 @ossl_ec_GF2m_simple_set_compressed_coordinates(ptr noundef nonnull %0, ptr noundef nonnull %1, ptr noundef %2, i32 noundef %3, ptr noundef %4) #2
  br label %37

35:                                               ; preds = %ec_point_is_compat.exit.thread
  %36 = tail call i32 %8(ptr noundef nonnull %0, ptr noundef nonnull %1, ptr noundef %2, i32 noundef %3, ptr noundef %4) #2
  br label %37

37:                                               ; preds = %35, %33, %31, %ec_point_is_compat.exit.thread25, %13
  %.0 = phi i32 [ %32, %31 ], [ %34, %33 ], [ %36, %35 ], [ 0, %ec_point_is_compat.exit.thread25 ], [ 0, %13 ]
  ret i32 %.0
}